; ModuleID = '46/1191.c'
source_filename = "46/1191.c"
target datalayout = "e-m:e-p270:32:32-p271:32:32-p272:64:64-i64:64-f80:128-n8:16:32:64-S128"
target triple = "x86_64-pc-linux-gnu"

@.str = private unnamed_addr constant [5 x i8] c"%d%d\00", align 1
@.str.1 = private unnamed_addr constant [3 x i8] c"%d\00", align 1
@.str.2 = private unnamed_addr constant [4 x i8] c"%d\0A\00", align 1

; Function Attrs: noinline nounwind uwtable
define dso_local i32 @main() #0 {
  %1 = alloca i32, align 4
  %2 = alloca [100 x [100 x i32]], align 16
  %3 = alloca i32, align 4
  %4 = alloca i32, align 4
  %5 = alloca i32, align 4
  %6 = alloca i32, align 4
  %7 = alloca i32, align 4
  %8 = alloca i32, align 4
  %9 = alloca i32, align 4
  %10 = alloca i32, align 4
  store i32 0, i32* %1, align 4
  %11 = call i32 (i8*, ...) @__isoc99_scanf(i8* getelementptr inbounds ([5 x i8], [5 x i8]* @.str, i64 0, i64 0), i32* %5, i32* %6)
  store i32 0, i32* %10, align 4
  store i32 0, i32* %3, align 4
  br label %12

12:                                               ; preds = %33, %0
  %13 = load i32, i32* %3, align 4
  %14 = load i32, i32* %5, align 4
  %15 = icmp slt i32 %13, %14
  br i1 %15, label %16, label %36

16:                                               ; preds = %12
  store i32 0, i32* %4, align 4
  br label %17

17:                                               ; preds = %29, %16
  %18 = load i32, i32* %4, align 4
  %19 = load i32, i32* %6, align 4
  %20 = icmp slt i32 %18, %19
  br i1 %20, label %21, label %32

21:                                               ; preds = %17
  %22 = load i32, i32* %3, align 4
  %23 = sext i32 %22 to i64
  %24 = getelementptr inbounds [100 x [100 x i32]], [100 x [100 x i32]]* %2, i64 0, i64 %23
  %25 = load i32, i32* %4, align 4
  %26 = sext i32 %25 to i64
  %27 = getelementptr inbounds [100 x i32], [100 x i32]* %24, i64 0, i64 %26
  %28 = call i32 (i8*, ...) @__isoc99_scanf(i8* getelementptr inbounds ([3 x i8], [3 x i8]* @.str.1, i64 0, i64 0), i32* %27)
  br label %29

29:                                               ; preds = %21
  %30 = load i32, i32* %4, align 4
  %31 = add nsw i32 %30, 1
  store i32 %31, i32* %4, align 4
  br label %17

32:                                               ; preds = %17
  br label %33

33:                                               ; preds = %32
  %34 = load i32, i32* %3, align 4
  %35 = add nsw i32 %34, 1
  store i32 %35, i32* %3, align 4
  br label %12

36:                                               ; preds = %12
  store i32 0, i32* %7, align 4
  br label %37

37:                                               ; preds = %170, %36
  %38 = load i32, i32* %7, align 4
  %39 = load i32, i32* %5, align 4
  %40 = add nsw i32 %39, 0
  %41 = icmp slt i32 %38, %40
  br i1 %41, label %42, label %47

42:                                               ; preds = %37
  %43 = load i32, i32* %7, align 4
  %44 = load i32, i32* %6, align 4
  %45 = add nsw i32 %44, 0
  %46 = icmp slt i32 %43, %45
  br label %47

47:                                               ; preds = %42, %37
  %48 = phi i1 [ false, %37 ], [ %46, %42 ]
  br i1 %48, label %49, label %173

49:                                               ; preds = %47
  %50 = load i32, i32* %5, align 4
  %51 = load i32, i32* %7, align 4
  %52 = sub nsw i32 %50, %51
  store i32 %52, i32* %8, align 4
  %53 = load i32, i32* %6, align 4
  %54 = load i32, i32* %7, align 4
  %55 = sub nsw i32 %53, %54
  store i32 %55, i32* %9, align 4
  %56 = load i32, i32* %7, align 4
  store i32 %56, i32* %4, align 4
  br label %57

57:                                               ; preds = %72, %49
  %58 = load i32, i32* %4, align 4
  %59 = load i32, i32* %9, align 4
  %60 = icmp slt i32 %58, %59
  br i1 %60, label %61, label %75

61:                                               ; preds = %57
  %62 = load i32, i32* %7, align 4
  %63 = sext i32 %62 to i64
  %64 = getelementptr inbounds [100 x [100 x i32]], [100 x [100 x i32]]* %2, i64 0, i64 %63
  %65 = load i32, i32* %4, align 4
  %66 = sext i32 %65 to i64
  %67 = getelementptr inbounds [100 x i32], [100 x i32]* %64, i64 0, i64 %66
  %68 = load i32, i32* %67, align 4
  %69 = call i32 (i8*, ...) @printf(i8* getelementptr inbounds ([4 x i8], [4 x i8]* @.str.2, i64 0, i64 0), i32 %68)
  %70 = load i32, i32* %10, align 4
  %71 = add nsw i32 %70, 1
  store i32 %71, i32* %10, align 4
  br label %72

72:                                               ; preds = %61
  %73 = load i32, i32* %4, align 4
  %74 = add nsw i32 %73, 1
  store i32 %74, i32* %4, align 4
  br label %57

75:                                               ; preds = %57
  %76 = load i32, i32* %10, align 4
  %77 = load i32, i32* %5, align 4
  %78 = load i32, i32* %6, align 4
  %79 = mul nsw i32 %77, %78
  %80 = icmp sge i32 %76, %79
  br i1 %80, label %81, label %82

81:                                               ; preds = %75
  br label %173

82:                                               ; preds = %75
  %83 = load i32, i32* %7, align 4
  %84 = add nsw i32 %83, 1
  store i32 %84, i32* %3, align 4
  br label %85

85:                                               ; preds = %101, %82
  %86 = load i32, i32* %3, align 4
  %87 = load i32, i32* %8, align 4
  %88 = icmp slt i32 %86, %87
  br i1 %88, label %89, label %104

89:                                               ; preds = %85
  %90 = load i32, i32* %3, align 4
  %91 = sext i32 %90 to i64
  %92 = getelementptr inbounds [100 x [100 x i32]], [100 x [100 x i32]]* %2, i64 0, i64 %91
  %93 = load i32, i32* %9, align 4
  %94 = sub nsw i32 %93, 1
  %95 = sext i32 %94 to i64
  %96 = getelementptr inbounds [100 x i32], [100 x i32]* %92, i64 0, i64 %95
  %97 = load i32, i32* %96, align 4
  %98 = call i32 (i8*, ...) @printf(i8* getelementptr inbounds ([4 x i8], [4 x i8]* @.str.2, i64 0, i64 0), i32 %97)
  %99 = load i32, i32* %10, align 4
  %100 = add nsw i32 %99, 1
  store i32 %100, i32* %10, align 4
  br label %101

101:                                              ; preds = %89
  %102 = load i32, i32* %3, align 4
  %103 = add nsw i32 %102, 1
  store i32 %103, i32* %3, align 4
  br label %85

104:                                              ; preds = %85
  %105 = load i32, i32* %10, align 4
  %106 = load i32, i32* %5, align 4
  %107 = load i32, i32* %6, align 4
  %108 = mul nsw i32 %106, %107
  %109 = icmp sge i32 %105, %108
  br i1 %109, label %110, label %111

110:                                              ; preds = %104
  br label %173

111:                                              ; preds = %104
  %112 = load i32, i32* %9, align 4
  %113 = sub nsw i32 %112, 2
  store i32 %113, i32* %4, align 4
  br label %114

114:                                              ; preds = %131, %111
  %115 = load i32, i32* %4, align 4
  %116 = load i32, i32* %7, align 4
  %117 = sub nsw i32 %116, 1
  %118 = icmp sgt i32 %115, %117
  br i1 %118, label %119, label %134

119:                                              ; preds = %114
  %120 = load i32, i32* %8, align 4
  %121 = sub nsw i32 %120, 1
  %122 = sext i32 %121 to i64
  %123 = getelementptr inbounds [100 x [100 x i32]], [100 x [100 x i32]]* %2, i64 0, i64 %122
  %124 = load i32, i32* %4, align 4
  %125 = sext i32 %124 to i64
  %126 = getelementptr inbounds [100 x i32], [100 x i32]* %123, i64 0, i64 %125
  %127 = load i32, i32* %126, align 4
  %128 = call i32 (i8*, ...) @printf(i8* getelementptr inbounds ([4 x i8], [4 x i8]* @.str.2, i64 0, i64 0), i32 %127)
  %129 = load i32, i32* %10, align 4
  %130 = add nsw i32 %129, 1
  store i32 %130, i32* %10, align 4
  br label %131

131:                                              ; preds = %119
  %132 = load i32, i32* %4, align 4
  %133 = add nsw i32 %132, -1
  store i32 %133, i32* %4, align 4
  br label %114

134:                                              ; preds = %114
  %135 = load i32, i32* %10, align 4
  %136 = load i32, i32* %5, align 4
  %137 = load i32, i32* %6, align 4
  %138 = mul nsw i32 %136, %137
  %139 = icmp sge i32 %135, %138
  br i1 %139, label %140, label %141

140:                                              ; preds = %134
  br label %173

141:                                              ; preds = %134
  %142 = load i32, i32* %8, align 4
  %143 = sub nsw i32 %142, 2
  store i32 %143, i32* %3, align 4
  br label %144

144:                                              ; preds = %159, %141
  %145 = load i32, i32* %3, align 4
  %146 = load i32, i32* %7, align 4
  %147 = icmp sgt i32 %145, %146
  br i1 %147, label %148, label %162

148:                                              ; preds = %144
  %149 = load i32, i32* %3, align 4
  %150 = sext i32 %149 to i64
  %151 = getelementptr inbounds [100 x [100 x i32]], [100 x [100 x i32]]* %2, i64 0, i64 %150
  %152 = load i32, i32* %7, align 4
  %153 = sext i32 %152 to i64
  %154 = getelementptr inbounds [100 x i32], [100 x i32]* %151, i64 0, i64 %153
  %155 = load i32, i32* %154, align 4
  %156 = call i32 (i8*, ...) @printf(i8* getelementptr inbounds ([4 x i8], [4 x i8]* @.str.2, i64 0, i64 0), i32 %155)
  %157 = load i32, i32* %10, align 4
  %158 = add nsw i32 %157, 1
  store i32 %158, i32* %10, align 4
  br label %159

159:                                              ; preds = %148
  %160 = load i32, i32* %3, align 4
  %161 = add nsw i32 %160, -1
  store i32 %161, i32* %3, align 4
  br label %144

162:                                              ; preds = %144
  %163 = load i32, i32* %10, align 4
  %164 = load i32, i32* %5, align 4
  %165 = load i32, i32* %6, align 4
  %166 = mul nsw i32 %164, %165
  %167 = icmp sge i32 %163, %166
  br i1 %167, label %168, label %169

168:                                              ; preds = %162
  br label %173

169:                                              ; preds = %162
  br label %170

170:                                              ; preds = %169
  %171 = load i32, i32* %7, align 4
  %172 = add nsw i32 %171, 1
  store i32 %172, i32* %7, align 4
  br label %37

173:                                              ; preds = %168, %140, %110, %81, %47
  ret i32 0
}

declare dso_local i32 @__isoc99_scanf(i8*, ...) #1

declare dso_local i32 @printf(i8*, ...) #1


!llvm.module.flags = !{!0}
!llvm.ident = !{!1}

!0 = !{i32 1, !"wchar_size", i32 4}
!1 = !{!"clang version 10.0.0-4ubuntu1 "}
